; Function Attrs: nounwind uwtable
define dso_local range(i32 -30, 1) i32 @archive_read_disk_open(ptr noundef %0, ptr noundef %1) local_unnamed_addr #0 {
  %3 = tail call i32 @__archive_check_magic(ptr noundef %0, i32 noundef 195932357, i32 noundef 33, ptr noundef nonnull @.str.13) #17
  %4 = icmp eq i32 %3, -30
  br i1 %4, label %29, label %5

5:                                                ; preds = %2
  tail call void @archive_clear_error(ptr noundef %0) #17
  %6 = getelementptr inbounds nuw i8, ptr %0, i64 160
  %7 = load ptr, ptr %6, align 8
  %.not.i = icmp eq ptr %7, null
  br i1 %.not.i, label %13, label %8

8:                                                ; preds = %5
  %9 = getelementptr inbounds nuw i8, ptr %0, i64 192
  %10 = load i32, ptr %9, align 8
  %11 = and i32 %10, 1
  %12 = tail call fastcc ptr @tree_reopen(ptr noundef %7, ptr noundef %1, i32 noundef %11)
  br label %27

13:                                               ; preds = %5
  %14 = getelementptr inbounds nuw i8, ptr %0, i64 152
  %15 = load i8, ptr %14, align 8
  %16 = getelementptr inbounds nuw i8, ptr %0, i64 192
  %17 = load i32, ptr %16, align 8
  %18 = tail call noalias dereferenceable_or_null(560) ptr @calloc(i64 noundef 1, i64 noundef 560) #18
  %19 = icmp eq ptr %18, null
  br i1 %19, label %26, label %20

20:                                               ; preds = %13
  %21 = and i32 %17, 1
  %22 = getelementptr inbounds nuw i8, ptr %18, i64 48
  %23 = tail call ptr @archive_string_ensure(ptr noundef nonnull %22, i64 noundef 31) #17
  %24 = getelementptr inbounds nuw i8, ptr %18, i64 480
  store i8 %15, ptr %24, align 8
  %25 = tail call fastcc ptr @tree_reopen(ptr noundef %18, ptr noundef %1, i32 noundef range(i32 0, 2) %21)
  br label %27

26:                                               ; preds = %13
  store ptr null, ptr %6, align 8
  tail call void (ptr, i32, ptr, ...) @archive_set_error(ptr noundef nonnull %0, i32 noundef 12, ptr noundef nonnull @.str.30) #17
  br label %_archive_read_disk_open.exit

27:                                               ; preds = %20, %8
  %storemerge.ph.i = phi ptr [ %18, %20 ], [ %7, %8 ]
  store ptr %storemerge.ph.i, ptr %6, align 8
  br label %_archive_read_disk_open.exit

_archive_read_disk_open.exit:                     ; preds = %26, %27
  %.sink.i = phi i32 [ 2, %27 ], [ 32768, %26 ]
  %.0.i = phi i32 [ 0, %27 ], [ -30, %26 ]
  %28 = getelementptr inbounds nuw i8, ptr %0, i64 4
  store i32 %.sink.i, ptr %28, align 4
  br label %29

29:                                               ; preds = %2, %_archive_read_disk_open.exit
  %.0 = phi i32 [ %.0.i, %_archive_read_disk_open.exit ], [ -30, %2 ]
  ret i32 %.0
}